; ModuleID = 'source-C-CXX/60/974.cpp'
source_filename = "source-C-CXX/60/974.cpp"
target datalayout = "e-m:e-p270:32:32-p271:32:32-p272:64:64-i64:64-f80:128-n8:16:32:64-S128"
target triple = "x86_64-pc-linux-gnu"

%"class.std::ios_base::Init" = type { i8 }
%"class.std::basic_istream" = type { i32 (...)**, i64, %"class.std::basic_ios" }
%"class.std::basic_ios" = type { %"class.std::ios_base", %"class.std::basic_ostream"*, i8, i8, %"class.std::basic_streambuf"*, %"class.std::ctype"*, %"class.std::num_put"*, %"class.std::num_get"* }
%"class.std::ios_base" = type { i32 (...)**, i64, i64, i32, i32, i32, %"struct.std::ios_base::_Callback_list"*, %"struct.std::ios_base::_Words", [8 x %"struct.std::ios_base::_Words"], i32, %"struct.std::ios_base::_Words"*, %"class.std::locale" }
%"struct.std::ios_base::_Callback_list" = type { %"struct.std::ios_base::_Callback_list"*, void (i32, %"class.std::ios_base"*, i32)*, i32, i32 }
%"struct.std::ios_base::_Words" = type { i8*, i64 }
%"class.std::locale" = type { %"class.std::locale::_Impl"* }
%"class.std::locale::_Impl" = type { i32, %"class.std::locale::facet"**, i64, %"class.std::locale::facet"**, i8** }
%"class.std::locale::facet" = type <{ i32 (...)**, i32, [4 x i8] }>
%"class.std::basic_ostream" = type { i32 (...)**, %"class.std::basic_ios" }
%"class.std::basic_streambuf" = type { i32 (...)**, i8*, i8*, i8*, i8*, i8*, i8*, %"class.std::locale" }
%"class.std::ctype" = type <{ %"class.std::locale::facet.base", [4 x i8], %struct.__locale_struct*, i8, [7 x i8], i32*, i32*, i16*, i8, [256 x i8], [256 x i8], i8, [6 x i8] }>
%"class.std::locale::facet.base" = type <{ i32 (...)**, i32 }>
%struct.__locale_struct = type { [13 x %struct.__locale_data*], i16*, i32*, i32*, [13 x i8*] }
%struct.__locale_data = type opaque
%"class.std::num_put" = type { %"class.std::locale::facet.base", [4 x i8] }
%"class.std::num_get" = type { %"class.std::locale::facet.base", [4 x i8] }

@_ZStL8__ioinit = internal global %"class.std::ios_base::Init" zeroinitializer, align 1
@__dso_handle = external hidden global i8
@_ZSt3cin = external global %"class.std::basic_istream", align 8
@_ZSt4cout = external global %"class.std::basic_ostream", align 8
@.str = private unnamed_addr constant [2 x i8] c"1\00", align 1
@llvm.global_ctors = appending global [1 x { i32, void ()*, i8* }] [{ i32, void ()*, i8* } { i32 65535, void ()* @_GLOBAL__sub_I_974.cpp, i8* null }]

declare void @_ZNSt8ios_base4InitC1Ev(%"class.std::ios_base::Init"* nonnull align 1 dereferenceable(1)) unnamed_addr #0

; Function Attrs: nounwind
declare void @_ZNSt8ios_base4InitD1Ev(%"class.std::ios_base::Init"* nonnull align 1 dereferenceable(1)) unnamed_addr #1

; Function Attrs: nofree nounwind
declare i32 @__cxa_atexit(void (i8*)*, i8*, i8*) local_unnamed_addr #2

; Function Attrs: mustprogress norecurse sspstrong uwtable
define dso_local i32 @main() local_unnamed_addr #3 {
  %1 = alloca i32, align 4
  %2 = alloca i32, align 4
  %3 = alloca [20 x i32], align 16
  %4 = bitcast i32* %1 to i8*
  call void @llvm.lifetime.start.p0i8(i64 4, i8* nonnull %4) #7
  %5 = bitcast i32* %2 to i8*
  call void @llvm.lifetime.start.p0i8(i64 4, i8* nonnull %5) #7
  %6 = bitcast [20 x i32]* %3 to i8*
  call void @llvm.lifetime.start.p0i8(i64 80, i8* nonnull %6) #7
  %7 = getelementptr inbounds [20 x i32], [20 x i32]* %3, i64 0, i64 1
  store i32 1, i32* %7, align 4, !tbaa !5
  %8 = getelementptr inbounds [20 x i32], [20 x i32]* %3, i64 0, i64 2
  store i32 1, i32* %8, align 8, !tbaa !5
  %9 = call nonnull align 8 dereferenceable(16) %"class.std::basic_istream"* @_ZNSirsERi(%"class.std::basic_istream"* nonnull align 8 dereferenceable(16) @_ZSt3cin, i32* nonnull align 4 dereferenceable(4) %1)
  %10 = load i32, i32* %1, align 4, !tbaa !5
  %11 = icmp slt i32 %10, 1
  br i1 %11, label %114, label %12

12:                                               ; preds = %0, %110
  %13 = phi i32 [ %111, %110 ], [ 1, %0 ]
  %14 = call nonnull align 8 dereferenceable(16) %"class.std::basic_istream"* @_ZNSirsERi(%"class.std::basic_istream"* nonnull align 8 dereferenceable(16) @_ZSt3cin, i32* nonnull align 4 dereferenceable(4) %2)
  %15 = load i32, i32* %2, align 4, !tbaa !5
  switch i32 %15, label %16 [
    i32 1, label %28
    i32 2, label %30
  ]

16:                                               ; preds = %12
  %17 = icmp slt i32 %15, 3
  br i1 %17, label %76, label %18

18:                                               ; preds = %16
  %19 = add nuw i32 %15, 1
  %20 = zext i32 %19 to i64
  %21 = load i32, i32* %8, align 8, !tbaa !5
  %22 = add nsw i64 %20, -3
  %23 = add nsw i64 %20, -4
  %24 = and i64 %22, 3
  %25 = icmp ult i64 %23, 3
  br i1 %25, label %60, label %26

26:                                               ; preds = %18
  %27 = and i64 %22, -4
  br label %32

28:                                               ; preds = %12
  %29 = call nonnull align 8 dereferenceable(8) %"class.std::basic_ostream"* @_ZSt16__ostream_insertIcSt11char_traitsIcEERSt13basic_ostreamIT_T0_ES6_PKS3_l(%"class.std::basic_ostream"* nonnull align 8 dereferenceable(8) @_ZSt4cout, i8* nonnull getelementptr inbounds ([2 x i8], [2 x i8]* @.str, i64 0, i64 0), i64 1)
  br label %110

30:                                               ; preds = %12
  %31 = call nonnull align 8 dereferenceable(8) %"class.std::basic_ostream"* @_ZSt16__ostream_insertIcSt11char_traitsIcEERSt13basic_ostreamIT_T0_ES6_PKS3_l(%"class.std::basic_ostream"* nonnull align 8 dereferenceable(8) @_ZSt4cout, i8* nonnull getelementptr inbounds ([2 x i8], [2 x i8]* @.str, i64 0, i64 0), i64 1)
  br label %110

32:                                               ; preds = %32, %26
  %33 = phi i32 [ %21, %26 ], [ %55, %32 ]
  %34 = phi i64 [ 3, %26 ], [ %57, %32 ]
  %35 = phi i64 [ %27, %26 ], [ %58, %32 ]
  %36 = add nsw i64 %34, -2
  %37 = getelementptr inbounds [20 x i32], [20 x i32]* %3, i64 0, i64 %36
  %38 = load i32, i32* %37, align 4, !tbaa !5
  %39 = add nsw i32 %38, %33
  %40 = getelementptr inbounds [20 x i32], [20 x i32]* %3, i64 0, i64 %34
  store i32 %39, i32* %40, align 4, !tbaa !5
  %41 = add nuw nsw i64 %34, 1
  %42 = add nsw i64 %34, -1
  %43 = getelementptr inbounds [20 x i32], [20 x i32]* %3, i64 0, i64 %42
  %44 = load i32, i32* %43, align 4, !tbaa !5
  %45 = add nsw i32 %44, %39
  %46 = getelementptr inbounds [20 x i32], [20 x i32]* %3, i64 0, i64 %41
  store i32 %45, i32* %46, align 4, !tbaa !5
  %47 = add nuw nsw i64 %34, 2
  %48 = getelementptr inbounds [20 x i32], [20 x i32]* %3, i64 0, i64 %34
  %49 = load i32, i32* %48, align 4, !tbaa !5
  %50 = add nsw i32 %49, %45
  %51 = getelementptr inbounds [20 x i32], [20 x i32]* %3, i64 0, i64 %47
  store i32 %50, i32* %51, align 4, !tbaa !5
  %52 = add nuw nsw i64 %34, 3
  %53 = getelementptr inbounds [20 x i32], [20 x i32]* %3, i64 0, i64 %41
  %54 = load i32, i32* %53, align 4, !tbaa !5
  %55 = add nsw i32 %54, %50
  %56 = getelementptr inbounds [20 x i32], [20 x i32]* %3, i64 0, i64 %52
  store i32 %55, i32* %56, align 4, !tbaa !5
  %57 = add nuw nsw i64 %34, 4
  %58 = add i64 %35, -4
  %59 = icmp eq i64 %58, 0
  br i1 %59, label %60, label %32, !llvm.loop !9

60:                                               ; preds = %32, %18
  %61 = phi i32 [ %21, %18 ], [ %55, %32 ]
  %62 = phi i64 [ 3, %18 ], [ %57, %32 ]
  %63 = icmp eq i64 %24, 0
  br i1 %63, label %76, label %64

64:                                               ; preds = %60, %64
  %65 = phi i32 [ %71, %64 ], [ %61, %60 ]
  %66 = phi i64 [ %73, %64 ], [ %62, %60 ]
  %67 = phi i64 [ %74, %64 ], [ %24, %60 ]
  %68 = add nsw i64 %66, -2
  %69 = getelementptr inbounds [20 x i32], [20 x i32]* %3, i64 0, i64 %68
  %70 = load i32, i32* %69, align 4, !tbaa !5
  %71 = add nsw i32 %70, %65
  %72 = getelementptr inbounds [20 x i32], [20 x i32]* %3, i64 0, i64 %66
  store i32 %71, i32* %72, align 4, !tbaa !5
  %73 = add nuw nsw i64 %66, 1
  %74 = add i64 %67, -1
  %75 = icmp eq i64 %74, 0
  br i1 %75, label %76, label %64, !llvm.loop !11

76:                                               ; preds = %60, %64, %16
  %77 = sext i32 %15 to i64
  %78 = getelementptr inbounds [20 x i32], [20 x i32]* %3, i64 0, i64 %77
  %79 = load i32, i32* %78, align 4, !tbaa !5
  %80 = call nonnull align 8 dereferenceable(8) %"class.std::basic_ostream"* @_ZNSolsEi(%"class.std::basic_ostream"* nonnull align 8 dereferenceable(8) @_ZSt4cout, i32 %79)
  %81 = bitcast %"class.std::basic_ostream"* %80 to i8**
  %82 = load i8*, i8** %81, align 8, !tbaa !13
  %83 = getelementptr i8, i8* %82, i64 -24
  %84 = bitcast i8* %83 to i64*
  %85 = load i64, i64* %84, align 8
  %86 = bitcast %"class.std::basic_ostream"* %80 to i8*
  %87 = add nsw i64 %85, 240
  %88 = getelementptr inbounds i8, i8* %86, i64 %87
  %89 = bitcast i8* %88 to %"class.std::ctype"**
  %90 = load %"class.std::ctype"*, %"class.std::ctype"** %89, align 8, !tbaa !15
  %91 = icmp eq %"class.std::ctype"* %90, null
  br i1 %91, label %92, label %93

92:                                               ; preds = %76
  call void @_ZSt16__throw_bad_castv() #8
  unreachable

93:                                               ; preds = %76
  %94 = getelementptr inbounds %"class.std::ctype", %"class.std::ctype"* %90, i64 0, i32 8
  %95 = load i8, i8* %94, align 8, !tbaa !19
  %96 = icmp eq i8 %95, 0
  br i1 %96, label %100, label %97

97:                                               ; preds = %93
  %98 = getelementptr inbounds %"class.std::ctype", %"class.std::ctype"* %90, i64 0, i32 9, i64 10
  %99 = load i8, i8* %98, align 1, !tbaa !21
  br label %106

100:                                              ; preds = %93
  call void @_ZNKSt5ctypeIcE13_M_widen_initEv(%"class.std::ctype"* nonnull align 8 dereferenceable(570) %90)
  %101 = bitcast %"class.std::ctype"* %90 to i8 (%"class.std::ctype"*, i8)***
  %102 = load i8 (%"class.std::ctype"*, i8)**, i8 (%"class.std::ctype"*, i8)*** %101, align 8, !tbaa !13
  %103 = getelementptr inbounds i8 (%"class.std::ctype"*, i8)*, i8 (%"class.std::ctype"*, i8)** %102, i64 6
  %104 = load i8 (%"class.std::ctype"*, i8)*, i8 (%"class.std::ctype"*, i8)** %103, align 8
  %105 = call signext i8 %104(%"class.std::ctype"* nonnull align 8 dereferenceable(570) %90, i8 signext 10)
  br label %106

106:                                              ; preds = %97, %100
  %107 = phi i8 [ %99, %97 ], [ %105, %100 ]
  %108 = call nonnull align 8 dereferenceable(8) %"class.std::basic_ostream"* @_ZNSo3putEc(%"class.std::basic_ostream"* nonnull align 8 dereferenceable(8) %80, i8 signext %107)
  %109 = call nonnull align 8 dereferenceable(8) %"class.std::basic_ostream"* @_ZNSo5flushEv(%"class.std::basic_ostream"* nonnull align 8 dereferenceable(8) %108)
  br label %110

110:                                              ; preds = %28, %106, %30
  %111 = add nuw nsw i32 %13, 1
  %112 = load i32, i32* %1, align 4, !tbaa !5
  %113 = icmp slt i32 %13, %112
  br i1 %113, label %12, label %114, !llvm.loop !22

114:                                              ; preds = %110, %0
  call void @llvm.lifetime.end.p0i8(i64 80, i8* nonnull %6) #7
  call void @llvm.lifetime.end.p0i8(i64 4, i8* nonnull %5) #7
  call void @llvm.lifetime.end.p0i8(i64 4, i8* nonnull %4) #7
  ret i32 0
}

; Function Attrs: argmemonly mustprogress nofree nosync nounwind willreturn
declare void @llvm.lifetime.start.p0i8(i64 immarg, i8* nocapture) #4

declare nonnull align 8 dereferenceable(16) %"class.std::basic_istream"* @_ZNSirsERi(%"class.std::basic_istream"* nonnull align 8 dereferenceable(16), i32* nonnull align 4 dereferenceable(4)) local_unnamed_addr #0

declare nonnull align 8 dereferenceable(8) %"class.std::basic_ostream"* @_ZNSolsEi(%"class.std::basic_ostream"* nonnull align 8 dereferenceable(8), i32) local_unnamed_addr #0

; Function Attrs: argmemonly mustprogress nofree nosync nounwind willreturn
declare void @llvm.lifetime.end.p0i8(i64 immarg, i8* nocapture) #4

declare nonnull align 8 dereferenceable(8) %"class.std::basic_ostream"* @_ZSt16__ostream_insertIcSt11char_traitsIcEERSt13basic_ostreamIT_T0_ES6_PKS3_l(%"class.std::basic_ostream"* nonnull align 8 dereferenceable(8), i8*, i64) local_unnamed_addr #0

declare nonnull align 8 dereferenceable(8) %"class.std::basic_ostream"* @_ZNSo3putEc(%"class.std::basic_ostream"* nonnull align 8 dereferenceable(8), i8 signext) local_unnamed_addr #0

declare nonnull align 8 dereferenceable(8) %"class.std::basic_ostream"* @_ZNSo5flushEv(%"class.std::basic_ostream"* nonnull align 8 dereferenceable(8)) local_unnamed_addr #0

; Function Attrs: noreturn
declare void @_ZSt16__throw_bad_castv() local_unnamed_addr #5

declare void @_ZNKSt5ctypeIcE13_M_widen_initEv(%"class.std::ctype"* nonnull align 8 dereferenceable(570)) local_unnamed_addr #0

; Function Attrs: sspstrong uwtable
define internal void @_GLOBAL__sub_I_974.cpp() #6 section ".text.startup" {
  tail call void @_ZNSt8ios_base4InitC1Ev(%"class.std::ios_base::Init"* nonnull align 1 dereferenceable(1) @_ZStL8__ioinit)
  %1 = tail call i32 @__cxa_atexit(void (i8*)* bitcast (void (%"class.std::ios_base::Init"*)* @_ZNSt8ios_base4InitD1Ev to void (i8*)*), i8* getelementptr inbounds (%"class.std::ios_base::Init", %"class.std::ios_base::Init"* @_ZStL8__ioinit, i64 0, i32 0), i8* nonnull @__dso_handle) #7
  ret void
}


!llvm.module.flags = !{!0, !1, !2, !3}
!llvm.ident = !{!4}

!0 = !{i32 1, !"wchar_size", i32 4}
!1 = !{i32 7, !"PIC Level", i32 2}
!2 = !{i32 7, !"PIE Level", i32 2}
!3 = !{i32 7, !"uwtable", i32 1}
!4 = !{!"clang version 13.0.0"}
!5 = !{!6, !6, i64 0}
!6 = !{!"int", !7, i64 0}
!7 = !{!"omnipotent char", !8, i64 0}
!8 = !{!"Simple C++ TBAA"}
!9 = distinct !{!9, !10}
!10 = !{!"llvm.loop.mustprogress"}
!11 = distinct !{!11, !12}
!12 = !{!"llvm.loop.unroll.disable"}
!13 = !{!14, !14, i64 0}
!14 = !{!"vtable pointer", !8, i64 0}
!15 = !{!16, !17, i64 240}
!16 = !{!"_ZTSSt9basic_iosIcSt11char_traitsIcEE", !17, i64 216, !7, i64 224, !18, i64 225, !17, i64 232, !17, i64 240, !17, i64 248, !17, i64 256}
!17 = !{!"any pointer", !7, i64 0}
!18 = !{!"bool", !7, i64 0}
!19 = !{!20, !7, i64 56}
!20 = !{!"_ZTSSt5ctypeIcE", !17, i64 16, !18, i64 24, !17, i64 32, !17, i64 40, !17, i64 48, !7, i64 56, !7, i64 57, !7, i64 313, !7, i64 569}
!21 = !{!7, !7, i64 0}
!22 = distinct !{!22, !10}
